target datalayout = "e-m:e-p270:32:32-p271:32:32-p272:64:64-i64:64-i128:128-f80:128-n8:16:32:64-S128"
target triple = "x86_64-pc-linux-gnu"

%struct._zval_struct = type { %union._zend_value, %union.anon, %union.anon.2 }
%union._zend_value = type { i64 }
%union.anon = type { i32 }
%union.anon.2 = type { i32 }
%struct._zend_array = type { %struct._zend_refcounted_h, %union.anon.4, i32, %union.anon.6, i32, i32, i32, i32, i64, ptr }
%struct._zend_refcounted_h = type { i32, %union.anon.3 }
%union.anon.3 = type { i32 }
%union.anon.4 = type { i32 }
%union.anon.6 = type { ptr }
%struct._php_random_algo = type { i64, ptr, ptr, ptr, ptr }
%struct._php_random_algo_with_state = type { ptr, ptr }
%struct._zend_class_entry = type { i8, ptr, %union.anon.8, i32, i32, i32, i32, ptr, ptr, ptr, %struct._zend_array, %struct._zend_array, %struct._zend_array, ptr, ptr, ptr, ptr, ptr, ptr, ptr, ptr, ptr, ptr, ptr, ptr, ptr, ptr, ptr, ptr, ptr, ptr, ptr, %union.anon.9, ptr, ptr, ptr, ptr, i32, i32, %union.anon.10, ptr, ptr, ptr, ptr, i32, ptr, ptr, %union.anon.11 }
%union.anon.8 = type { ptr }
%union.anon.9 = type { ptr }
%union.anon.10 = type { ptr }
%union.anon.11 = type { %struct.anon.12 }
%struct.anon.12 = type { ptr, i32, i32 }
%struct._php_random_engine = type { %struct._php_random_algo_with_state, %struct._zend_object }
%struct._zend_object = type { %struct._zend_refcounted_h, i32, ptr, ptr, ptr, [1 x %struct._zval_struct] }

; Function Attrs: nounwind uwtable
define ptr @php_random_status_copy(ptr noundef %0, ptr noundef %1, ptr noundef %2) #0 {
  %4 = alloca ptr, align 8
  %5 = alloca ptr, align 8
  %6 = alloca ptr, align 8
  store ptr %0, ptr %4, align 8
  store ptr %1, ptr %5, align 8
  store ptr %2, ptr %6, align 8
  %7 = load ptr, ptr %6, align 8
  %8 = load ptr, ptr %5, align 8
  %9 = load ptr, ptr %4, align 8
  %10 = getelementptr inbounds %struct._php_random_algo, ptr %9, i32 0, i32 0
  %11 = load i64, ptr %10, align 8
  call void @llvm.memcpy.p0.p0.i64(ptr align 1 %7, ptr align 1 %8, i64 %11, i1 false)
  ret ptr %7
}

; Function Attrs: nounwind uwtable
define internal ptr @php_random_engine_from_obj(ptr noundef %0) #0 {
  %2 = alloca ptr, align 8
  store ptr %0, ptr %2, align 8
  %3 = load ptr, ptr %2, align 8
  %4 = getelementptr inbounds i8, ptr %3, i64 -16
  ret ptr %4
}

; Function Attrs: nounwind uwtable
define ptr @php_random_engine_common_clone_object(ptr noundef %0) #0 {
  %2 = alloca ptr, align 8
  %3 = alloca ptr, align 8
  %4 = alloca ptr, align 8
  store ptr %0, ptr %2, align 8
  %5 = load ptr, ptr %2, align 8
  %6 = call ptr @php_random_engine_from_obj(ptr noundef %5)
  store ptr %6, ptr %3, align 8
  %7 = load ptr, ptr %3, align 8
  %8 = getelementptr inbounds %struct._php_random_engine, ptr %7, i32 0, i32 1
  %9 = getelementptr inbounds %struct._zend_object, ptr %8, i32 0, i32 2
  %10 = load ptr, ptr %9, align 8
  %11 = getelementptr inbounds %struct._zend_class_entry, ptr %10, i32 0, i32 32
  %12 = load ptr, ptr %11, align 8
  %13 = load ptr, ptr %3, align 8
  %14 = getelementptr inbounds %struct._php_random_engine, ptr %13, i32 0, i32 1
  %15 = getelementptr inbounds %struct._zend_object, ptr %14, i32 0, i32 2
  %16 = load ptr, ptr %15, align 8
  %17 = call ptr %12(ptr noundef %16)
  %18 = call ptr @php_random_engine_from_obj(ptr noundef %17)
  store ptr %18, ptr %4, align 8
  %19 = load ptr, ptr %3, align 8
  %20 = getelementptr inbounds %struct._php_random_engine, ptr %19, i32 0, i32 0
  %21 = getelementptr inbounds %struct._php_random_algo_with_state, ptr %20, i32 0, i32 0
  %22 = load ptr, ptr %21, align 8
  %23 = load ptr, ptr %4, align 8
  %24 = getelementptr inbounds %struct._php_random_engine, ptr %23, i32 0, i32 0
  %25 = getelementptr inbounds %struct._php_random_algo_with_state, ptr %24, i32 0, i32 0
  store ptr %22, ptr %25, align 8
  %26 = load ptr, ptr %3, align 8
  %27 = getelementptr inbounds %struct._php_random_engine, ptr %26, i32 0, i32 0
  %28 = getelementptr inbounds %struct._php_random_algo_with_state, ptr %27, i32 0, i32 1
  %29 = load ptr, ptr %28, align 8
  %30 = icmp ne ptr %29, null
  br i1 %30, label %31, label %48

31:                                               ; preds = %1
  %32 = load ptr, ptr %3, align 8
  %33 = getelementptr inbounds %struct._php_random_engine, ptr %32, i32 0, i32 0
  %34 = getelementptr inbounds %struct._php_random_algo_with_state, ptr %33, i32 0, i32 0
  %35 = load ptr, ptr %34, align 8
  %36 = load ptr, ptr %3, align 8
  %37 = getelementptr inbounds %struct._php_random_engine, ptr %36, i32 0, i32 0
  %38 = getelementptr inbounds %struct._php_random_algo_with_state, ptr %37, i32 0, i32 1
  %39 = load ptr, ptr %38, align 8
  %40 = load ptr, ptr %4, align 8
  %41 = getelementptr inbounds %struct._php_random_engine, ptr %40, i32 0, i32 0
  %42 = getelementptr inbounds %struct._php_random_algo_with_state, ptr %41, i32 0, i32 1
  %43 = load ptr, ptr %42, align 8
  %44 = call ptr @php_random_status_copy(ptr noundef %35, ptr noundef %39, ptr noundef %43)
  %45 = load ptr, ptr %4, align 8
  %46 = getelementptr inbounds %struct._php_random_engine, ptr %45, i32 0, i32 0
  %47 = getelementptr inbounds %struct._php_random_algo_with_state, ptr %46, i32 0, i32 1
  store ptr %44, ptr %47, align 8
  br label %48

48:                                               ; preds = %31, %1
  %49 = load ptr, ptr %4, align 8
  %50 = getelementptr inbounds %struct._php_random_engine, ptr %49, i32 0, i32 1
  %51 = load ptr, ptr %3, align 8
  %52 = getelementptr inbounds %struct._php_random_engine, ptr %51, i32 0, i32 1
  call void @zend_objects_clone_members(ptr noundef %50, ptr noundef %52)
  %53 = load ptr, ptr %4, align 8
  %54 = getelementptr inbounds %struct._php_random_engine, ptr %53, i32 0, i32 1
  ret ptr %54
}