; Function Attrs: nounwind uwtable
define ptr @php_random_engine_common_clone_object(ptr noundef %0) #0 {
  %2 = getelementptr inbounds i8, ptr %0, i64 -16
  %3 = getelementptr inbounds i8, ptr %0, i64 16
  %4 = load ptr, ptr %3, align 8
  %5 = getelementptr inbounds i8, ptr %4, i64 384
  %6 = load ptr, ptr %5, align 8
  %7 = tail call ptr %6(ptr noundef %4) #13
  %8 = getelementptr inbounds i8, ptr %7, i64 -16
  %9 = load ptr, ptr %2, align 8
  store ptr %9, ptr %8, align 8
  %10 = getelementptr inbounds i8, ptr %0, i64 -8
  %11 = load ptr, ptr %10, align 8
  %.not = icmp eq ptr %11, null
  br i1 %.not, label %16, label %12

12:                                               ; preds = %1
  %13 = getelementptr inbounds i8, ptr %7, i64 -8
  %14 = load ptr, ptr %13, align 8
  %15 = load i64, ptr %9, align 8
  tail call void @llvm.memcpy.p0.p0.i64(ptr align 1 %14, ptr nonnull align 1 %11, i64 %15, i1 false)
  store ptr %14, ptr %13, align 8
  br label %16

16:                                               ; preds = %12, %1
  tail call void @zend_objects_clone_members(ptr noundef nonnull %7, ptr noundef nonnull %0) #13
  ret ptr %7
}